; ModuleID = '51/206.c'
source_filename = "51/206.c"
target datalayout = "e-m:e-p270:32:32-p271:32:32-p272:64:64-i64:64-f80:128-n8:16:32:64-S128"
target triple = "x86_64-pc-linux-gnu"

@.str = private unnamed_addr constant [4 x i8] c"%d\0A\00", align 1
@.str.1 = private unnamed_addr constant [3 x i8] c"NO\00", align 1
@.str.2 = private unnamed_addr constant [3 x i8] c"%d\00", align 1
@.str.3 = private unnamed_addr constant [4 x i8] c"\0A%s\00", align 1

; Function Attrs: noinline nounwind uwtable
define dso_local i32 @main() #0 {
  %1 = alloca i32, align 4
  %2 = alloca i32, align 4
  %3 = alloca [501 x i8], align 16
  %4 = alloca i32, align 4
  %5 = alloca i32, align 4
  %6 = alloca i32, align 4
  %7 = alloca [501 x [7 x i8]], align 16
  %8 = alloca [501 x i32], align 16
  %9 = alloca i32, align 4
  %10 = alloca i32, align 4
  store i32 0, i32* %1, align 4
  store i32 0, i32* %2, align 4
  %11 = bitcast [501 x i8]* %3 to i8*
  call void @llvm.memset.p0i8.i64(i8* align 16 %11, i8 0, i64 501, i1 false)
  %12 = call i32 (i8*, ...) @__isoc99_scanf(i8* getelementptr inbounds ([4 x i8], [4 x i8]* @.str, i64 0, i64 0), i32* %2)
  %13 = getelementptr inbounds [501 x i8], [501 x i8]* %3, i64 0, i64 0
  %14 = call i32 (i8*, ...) bitcast (i32 (...)* @gets to i32 (i8*, ...)*)(i8* %13)
  store i32 0, i32* %4, align 4
  store i32 0, i32* %5, align 4
  %15 = getelementptr inbounds [501 x i8], [501 x i8]* %3, i64 0, i64 0
  %16 = call i64 @strlen(i8* %15) #4
  %17 = trunc i64 %16 to i32
  store i32 %17, i32* %6, align 4
  %18 = bitcast [501 x [7 x i8]]* %7 to i8*
  call void @llvm.memset.p0i8.i64(i8* align 16 %18, i8 0, i64 3507, i1 false)
  %19 = bitcast [501 x i32]* %8 to i8*
  call void @llvm.memset.p0i8.i64(i8* align 16 %19, i8 0, i64 2004, i1 false)
  store i32 0, i32* %9, align 4
  store i32 0, i32* %10, align 4
  store i32 0, i32* %4, align 4
  br label %20

20:                                               ; preds = %109, %0
  %21 = load i32, i32* %4, align 4
  %22 = load i32, i32* %6, align 4
  %23 = load i32, i32* %2, align 4
  %24 = sub nsw i32 %22, %23
  %25 = icmp sle i32 %21, %24
  br i1 %25, label %26, label %112

26:                                               ; preds = %20
  %27 = load i32, i32* %4, align 4
  store i32 %27, i32* %5, align 4
  br label %28

28:                                               ; preds = %47, %26
  %29 = load i32, i32* %5, align 4
  %30 = load i32, i32* %4, align 4
  %31 = load i32, i32* %2, align 4
  %32 = add nsw i32 %30, %31
  %33 = icmp slt i32 %29, %32
  br i1 %33, label %34, label %50

34:                                               ; preds = %28
  %35 = load i32, i32* %5, align 4
  %36 = sext i32 %35 to i64
  %37 = getelementptr inbounds [501 x i8], [501 x i8]* %3, i64 0, i64 %36
  %38 = load i8, i8* %37, align 1
  %39 = load i32, i32* %9, align 4
  %40 = sext i32 %39 to i64
  %41 = getelementptr inbounds [501 x [7 x i8]], [501 x [7 x i8]]* %7, i64 0, i64 %40
  %42 = load i32, i32* %5, align 4
  %43 = load i32, i32* %4, align 4
  %44 = sub nsw i32 %42, %43
  %45 = sext i32 %44 to i64
  %46 = getelementptr inbounds [7 x i8], [7 x i8]* %41, i64 0, i64 %45
  store i8 %38, i8* %46, align 1
  br label %47

47:                                               ; preds = %34
  %48 = load i32, i32* %5, align 4
  %49 = add nsw i32 %48, 1
  store i32 %49, i32* %5, align 4
  br label %28

50:                                               ; preds = %28
  %51 = load i32, i32* %9, align 4
  %52 = sext i32 %51 to i64
  %53 = getelementptr inbounds [501 x [7 x i8]], [501 x [7 x i8]]* %7, i64 0, i64 %52
  %54 = load i32, i32* %2, align 4
  %55 = sext i32 %54 to i64
  %56 = getelementptr inbounds [7 x i8], [7 x i8]* %53, i64 0, i64 %55
  store i8 0, i8* %56, align 1
  store i32 0, i32* %5, align 4
  br label %57

57:                                               ; preds = %91, %50
  %58 = load i32, i32* %5, align 4
  %59 = load i32, i32* %9, align 4
  %60 = icmp slt i32 %58, %59
  br i1 %60, label %61, label %94

61:                                               ; preds = %57
  %62 = load i32, i32* %5, align 4
  %63 = sext i32 %62 to i64
  %64 = getelementptr inbounds [501 x [7 x i8]], [501 x [7 x i8]]* %7, i64 0, i64 %63
  %65 = getelementptr inbounds [7 x i8], [7 x i8]* %64, i64 0, i64 0
  %66 = load i32, i32* %9, align 4
  %67 = sext i32 %66 to i64
  %68 = getelementptr inbounds [501 x [7 x i8]], [501 x [7 x i8]]* %7, i64 0, i64 %67
  %69 = getelementptr inbounds [7 x i8], [7 x i8]* %68, i64 0, i64 0
  %70 = call i32 @strcmp(i8* %65, i8* %69) #4
  %71 = icmp eq i32 %70, 0
  br i1 %71, label %72, label %90

72:                                               ; preds = %61
  %73 = load i32, i32* %5, align 4
  %74 = sext i32 %73 to i64
  %75 = getelementptr inbounds [501 x i32], [501 x i32]* %8, i64 0, i64 %74
  %76 = load i32, i32* %75, align 4
  %77 = add nsw i32 %76, 1
  store i32 %77, i32* %75, align 4
  %78 = load i32, i32* %10, align 4
  %79 = load i32, i32* %5, align 4
  %80 = sext i32 %79 to i64
  %81 = getelementptr inbounds [501 x i32], [501 x i32]* %8, i64 0, i64 %80
  %82 = load i32, i32* %81, align 4
  %83 = icmp slt i32 %78, %82
  br i1 %83, label %84, label %89

84:                                               ; preds = %72
  %85 = load i32, i32* %5, align 4
  %86 = sext i32 %85 to i64
  %87 = getelementptr inbounds [501 x i32], [501 x i32]* %8, i64 0, i64 %86
  %88 = load i32, i32* %87, align 4
  store i32 %88, i32* %10, align 4
  br label %89

89:                                               ; preds = %84, %72
  br label %94

90:                                               ; preds = %61
  br label %91

91:                                               ; preds = %90
  %92 = load i32, i32* %5, align 4
  %93 = add nsw i32 %92, 1
  store i32 %93, i32* %5, align 4
  br label %57

94:                                               ; preds = %89, %57
  %95 = load i32, i32* %5, align 4
  %96 = load i32, i32* %9, align 4
  %97 = icmp eq i32 %95, %96
  br i1 %97, label %98, label %108

98:                                               ; preds = %94
  %99 = load i32, i32* %9, align 4
  %100 = sext i32 %99 to i64
  %101 = getelementptr inbounds [501 x i32], [501 x i32]* %8, i64 0, i64 %100
  store i32 1, i32* %101, align 4
  %102 = load i32, i32* %10, align 4
  %103 = icmp eq i32 %102, 0
  br i1 %103, label %104, label %105

104:                                              ; preds = %98
  store i32 1, i32* %10, align 4
  br label %105

105:                                              ; preds = %104, %98
  %106 = load i32, i32* %9, align 4
  %107 = add nsw i32 %106, 1
  store i32 %107, i32* %9, align 4
  br label %108

108:                                              ; preds = %105, %94
  br label %109

109:                                              ; preds = %108
  %110 = load i32, i32* %4, align 4
  %111 = add nsw i32 %110, 1
  store i32 %111, i32* %4, align 4
  br label %20

112:                                              ; preds = %20
  %113 = load i32, i32* %10, align 4
  %114 = icmp sle i32 %113, 1
  br i1 %114, label %115, label %117

115:                                              ; preds = %112
  %116 = call i32 (i8*, ...) @printf(i8* getelementptr inbounds ([3 x i8], [3 x i8]* @.str.1, i64 0, i64 0))
  store i32 0, i32* %1, align 4
  br label %144

117:                                              ; preds = %112
  %118 = load i32, i32* %10, align 4
  %119 = call i32 (i8*, ...) @printf(i8* getelementptr inbounds ([3 x i8], [3 x i8]* @.str.2, i64 0, i64 0), i32 %118)
  store i32 0, i32* %4, align 4
  br label %120

120:                                              ; preds = %140, %117
  %121 = load i32, i32* %4, align 4
  %122 = load i32, i32* %6, align 4
  %123 = load i32, i32* %2, align 4
  %124 = sub nsw i32 %122, %123
  %125 = icmp sle i32 %121, %124
  br i1 %125, label %126, label %143

126:                                              ; preds = %120
  %127 = load i32, i32* %4, align 4
  %128 = sext i32 %127 to i64
  %129 = getelementptr inbounds [501 x i32], [501 x i32]* %8, i64 0, i64 %128
  %130 = load i32, i32* %129, align 4
  %131 = load i32, i32* %10, align 4
  %132 = icmp eq i32 %130, %131
  br i1 %132, label %133, label %139

133:                                              ; preds = %126
  %134 = load i32, i32* %4, align 4
  %135 = sext i32 %134 to i64
  %136 = getelementptr inbounds [501 x [7 x i8]], [501 x [7 x i8]]* %7, i64 0, i64 %135
  %137 = getelementptr inbounds [7 x i8], [7 x i8]* %136, i64 0, i64 0
  %138 = call i32 (i8*, ...) @printf(i8* getelementptr inbounds ([4 x i8], [4 x i8]* @.str.3, i64 0, i64 0), i8* %137)
  br label %139

139:                                              ; preds = %133, %126
  br label %140

140:                                              ; preds = %139
  %141 = load i32, i32* %4, align 4
  %142 = add nsw i32 %141, 1
  store i32 %142, i32* %4, align 4
  br label %120

143:                                              ; preds = %120
  store i32 0, i32* %1, align 4
  br label %144

144:                                              ; preds = %143, %115
  %145 = load i32, i32* %1, align 4
  ret i32 %145
}

; Function Attrs: argmemonly nounwind willreturn
declare void @llvm.memset.p0i8.i64(i8* nocapture writeonly, i8, i64, i1 immarg) #1

declare dso_local i32 @__isoc99_scanf(i8*, ...) #2

declare dso_local i32 @gets(...) #2

; Function Attrs: nounwind readonly
declare dso_local i64 @strlen(i8*) #3

; Function Attrs: nounwind readonly
declare dso_local i32 @strcmp(i8*, i8*) #3

declare dso_local i32 @printf(i8*, ...) #2


!llvm.module.flags = !{!0}
!llvm.ident = !{!1}

!0 = !{i32 1, !"wchar_size", i32 4}
!1 = !{!"clang version 10.0.0-4ubuntu1 "}
